; Function Attrs: mustprogress nofree norecurse nosync nounwind willreturn memory(none) uwtable
define hidden noundef float @_ZN19OpenColorIO_v2_5dev20GetSafeScalarInverseEff(float noundef %0, float noundef %1) local_unnamed_addr #4 {
  %3 = bitcast float %0 to i32
  %4 = and i32 %3, 2139095040
  %5 = icmp eq i32 %4, 2139095040
  br i1 %5, label %_ZN19OpenColorIO_v2_5dev19IsScalarEqualToZeroIfEEbT_.exit.thread, label %_ZN19OpenColorIO_v2_5dev19IsScalarEqualToZeroIfEEbT_.exit

_ZN19OpenColorIO_v2_5dev19IsScalarEqualToZeroIfEEbT_.exit.thread: ; preds = %2
  %6 = fdiv float 1.000000e+00, %0
  br label %21

_ZN19OpenColorIO_v2_5dev19IsScalarEqualToZeroIfEEbT_.exit: ; preds = %2
  %7 = tail call float @llvm.fabs.f32(float %0)
  %8 = fneg float %7
  %9 = bitcast float %8 to i32
  %10 = bitcast float %7 to i32
  %11 = sub nuw i32 -2147483648, %10
  %12 = icmp slt i32 %3, 0
  %13 = select i1 %12, i32 %11, i32 %9
  %14 = sub nuw i32 -2147483648, %13
  %15 = xor i32 %13, -2147483648
  %16 = icmp slt i32 %13, 0
  %17 = select i1 %16, i32 %15, i32 %14
  %.fr = freeze i32 %17
  %18 = icmp ult i32 %.fr, 3
  %19 = fdiv float 1.000000e+00, %0
  br i1 %18, label %20, label %21

20:                                               ; preds = %_ZN19OpenColorIO_v2_5dev19IsScalarEqualToZeroIfEEbT_.exit
  br label %21

21:                                               ; preds = %_ZN19OpenColorIO_v2_5dev19IsScalarEqualToZeroIfEEbT_.exit.thread, %_ZN19OpenColorIO_v2_5dev19IsScalarEqualToZeroIfEEbT_.exit, %20
  %22 = phi float [ %1, %20 ], [ %19, %_ZN19OpenColorIO_v2_5dev19IsScalarEqualToZeroIfEEbT_.exit ], [ %6, %_ZN19OpenColorIO_v2_5dev19IsScalarEqualToZeroIfEEbT_.exit.thread ]
  ret float %22
}